; Function Attrs: inlinehint nofree norecurse nosync nounwind memory(readwrite, inaccessiblemem: none) uwtable
define internal fastcc ptr @If_CutTruthW(ptr noundef readonly captures(none) %0, ptr noundef readonly captures(none) %1) unnamed_addr #6 {
  %3 = getelementptr inbounds nuw i8, ptr %0, i64 152
  %4 = load ptr, ptr %3, align 8, !tbaa !124
  %5 = getelementptr inbounds nuw i8, ptr %0, i64 1064
  %6 = getelementptr inbounds nuw i8, ptr %1, i64 28
  %7 = load i64, ptr %6, align 4
  %8 = lshr i64 %7, 24
  %9 = and i64 %8, 255
  %10 = getelementptr inbounds nuw [16 x ptr], ptr %5, i64 0, i64 %9
  %11 = load ptr, ptr %10, align 8, !tbaa !115
  %.not.i = icmp eq ptr %11, null
  %.phi.trans.insert = getelementptr i8, ptr %1, i64 16
  %.val.pre = load i32, ptr %.phi.trans.insert, align 4, !tbaa !86
  br i1 %.not.i, label %If_CutTruthWR.exit, label %12

12:                                               ; preds = %2
  %13 = ashr i32 %.val.pre, 1
  %14 = getelementptr inbounds nuw i8, ptr %11, i64 24
  %15 = load ptr, ptr %14, align 8, !tbaa !116
  %16 = getelementptr inbounds nuw i8, ptr %11, i64 8
  %17 = load i32, ptr %16, align 8, !tbaa !119
  %18 = ashr i32 %13, %17
  %19 = sext i32 %18 to i64
  %20 = getelementptr inbounds ptr, ptr %15, i64 %19
  %21 = load ptr, ptr %20, align 8, !tbaa !120
  %22 = load i32, ptr %11, align 8, !tbaa !121
  %23 = getelementptr inbounds nuw i8, ptr %11, i64 12
  %24 = load i32, ptr %23, align 4, !tbaa !122
  %25 = and i32 %24, %13
  %26 = mul nsw i32 %25, %22
  %27 = sext i32 %26 to i64
  %28 = getelementptr inbounds i64, ptr %21, i64 %27
  br label %If_CutTruthWR.exit

If_CutTruthWR.exit:                               ; preds = %2, %12
  %29 = phi ptr [ %28, %12 ], [ null, %2 ]
  %30 = getelementptr inbounds nuw i8, ptr %0, i64 652
  %31 = getelementptr inbounds nuw [16 x i32], ptr %30, i64 0, i64 %9
  %32 = load i32, ptr %31, align 4, !tbaa !34
  %33 = and i32 %.val.pre, 1
  %.not.i7 = icmp eq i32 %33, 0
  %34 = icmp sgt i32 %32, 0
  br i1 %.not.i7, label %.preheader.i, label %.preheader14.i

.preheader14.i:                                   ; preds = %If_CutTruthWR.exit
  br i1 %34, label %.lr.ph.preheader.i, label %Abc_TtCopy.exit

.lr.ph.preheader.i:                               ; preds = %.preheader14.i
  %wide.trip.count.i = zext nneg i32 %32 to i64
  br label %.lr.ph.i

.preheader.i:                                     ; preds = %If_CutTruthWR.exit
  br i1 %34, label %.lr.ph18.preheader.i, label %Abc_TtCopy.exit

.lr.ph18.preheader.i:                             ; preds = %.preheader.i
  %wide.trip.count24.i = zext nneg i32 %32 to i64
  br label %.lr.ph18.i

.lr.ph.i:                                         ; preds = %.lr.ph.i, %.lr.ph.preheader.i
  %indvars.iv.i = phi i64 [ 0, %.lr.ph.preheader.i ], [ %indvars.iv.next.i, %.lr.ph.i ]
  %35 = getelementptr inbounds nuw i64, ptr %29, i64 %indvars.iv.i
  %36 = load i64, ptr %35, align 8, !tbaa !98
  %37 = xor i64 %36, -1
  %38 = getelementptr inbounds nuw i64, ptr %4, i64 %indvars.iv.i
  store i64 %37, ptr %38, align 8, !tbaa !98
  %indvars.iv.next.i = add nuw nsw i64 %indvars.iv.i, 1
  %exitcond.not.i = icmp eq i64 %indvars.iv.next.i, %wide.trip.count.i
  br i1 %exitcond.not.i, label %Abc_TtCopy.exit, label %.lr.ph.i, !llvm.loop !125

.lr.ph18.i:                                       ; preds = %.lr.ph18.i, %.lr.ph18.preheader.i
  %indvars.iv21.i = phi i64 [ 0, %.lr.ph18.preheader.i ], [ %indvars.iv.next22.i, %.lr.ph18.i ]
  %39 = getelementptr inbounds nuw i64, ptr %29, i64 %indvars.iv21.i
  %40 = load i64, ptr %39, align 8, !tbaa !98
  %41 = getelementptr inbounds nuw i64, ptr %4, i64 %indvars.iv21.i
  store i64 %40, ptr %41, align 8, !tbaa !98
  %indvars.iv.next22.i = add nuw nsw i64 %indvars.iv21.i, 1
  %exitcond25.not.i = icmp eq i64 %indvars.iv.next22.i, %wide.trip.count24.i
  br i1 %exitcond25.not.i, label %Abc_TtCopy.exit, label %.lr.ph18.i, !llvm.loop !126

Abc_TtCopy.exit:                                  ; preds = %.lr.ph.i, %.lr.ph18.i, %.preheader14.i, %.preheader.i
  ret ptr %4
}